; Function Attrs: mustprogress nofree norecurse nosync nounwind willreturn memory(readwrite, inaccessiblemem: none) uwtable
define dso_local void @_ZN5clang17ObjCInterfaceDecl13setHasODRHashEb(ptr nocapture noundef nonnull readonly align 8 dereferenceable(128) %0, i1 noundef zeroext %1) local_unnamed_addr #7 align 2 {
  %3 = getelementptr inbounds nuw i8, ptr %0, i64 120
  %.0.copyload.i.i.i.i = load i64, ptr %3, align 8
  %4 = and i64 %.0.copyload.i.i.i.i, -8
  %5 = inttoptr i64 %4 to ptr
  %6 = getelementptr inbounds nuw i8, ptr %5, i64 72
  %7 = load i8, ptr %6, align 8
  %8 = select i1 %1, i8 32, i8 0
  %9 = and i8 %7, -33
  %10 = or disjoint i8 %9, %8
  store i8 %10, ptr %6, align 8
  ret void
}